; Function Attrs: nounwind sspstrong uwtable
define internal noundef i64 @rb_io_set_autoclose(i64 noundef %0, i64 noundef returned %1) #0 {
  %3 = icmp eq i64 %0, 0
  %4 = and i64 %0, 7
  %5 = icmp ne i64 %4, 0
  %6 = or i1 %3, %5
  br i1 %6, label %RB_OBJ_FROZEN.exit.thread.i.i, label %RB_FL_ABLE.exit.i.i.i, !prof !24

RB_FL_ABLE.exit.i.i.i:                            ; preds = %2
  %7 = inttoptr i64 %0 to ptr
  %8 = load i64, ptr %7, align 8, !tbaa !25
  %9 = and i64 %8, 31
  %.not.i.i.i = icmp eq i64 %9, 27
  %10 = and i64 %8, 2048
  %11 = icmp ne i64 %10, 0
  %or.cond.i.i = or i1 %.not.i.i.i, %11
  br i1 %or.cond.i.i, label %RB_OBJ_FROZEN.exit.thread.i.i, label %rbimpl_RB_TYPE_P_fastpath.exit.i.i, !prof !27

RB_OBJ_FROZEN.exit.thread.i.i:                    ; preds = %RB_FL_ABLE.exit.i.i.i, %2
  tail call void @rb_error_frozen_object(i64 noundef %0) #30
  unreachable

rbimpl_RB_TYPE_P_fastpath.exit.i.i:               ; preds = %RB_FL_ABLE.exit.i.i.i
  %12 = icmp ne i64 %9, 5
  %13 = and i64 %8, 49152
  %.not.i.i = icmp eq i64 %13, 0
  %or.cond8.i.i = or i1 %12, %.not.i.i
  br i1 %or.cond8.i.i, label %rb_io_taint_check.exit, label %14, !prof !28

14:                                               ; preds = %rbimpl_RB_TYPE_P_fastpath.exit.i.i
  tail call void @rb_str_modify(i64 noundef %0) #28
  br label %rb_io_taint_check.exit

rb_io_taint_check.exit:                           ; preds = %rbimpl_RB_TYPE_P_fastpath.exit.i.i, %14
  %15 = getelementptr inbounds nuw i8, ptr %7, i64 16
  %16 = load ptr, ptr %15, align 8, !tbaa !29
  %.not.i.i4 = icmp eq ptr %16, null
  br i1 %.not.i.i4, label %17, label %rb_io_check_initialized.exit.i

17:                                               ; preds = %rb_io_taint_check.exit
  %18 = load i64, ptr @rb_eIOError, align 8, !tbaa !23
  tail call void (i64, ptr, ...) @rb_raise(i64 noundef %18, ptr noundef nonnull @.str.4) #30
  unreachable

rb_io_check_initialized.exit.i:                   ; preds = %rb_io_taint_check.exit
  %19 = getelementptr inbounds nuw i8, ptr %16, i64 16
  %20 = load i32, ptr %19, align 8, !tbaa !7
  %21 = icmp slt i32 %20, 0
  br i1 %21, label %22, label %rb_io_check_closed.exit

22:                                               ; preds = %rb_io_check_initialized.exit.i
  tail call void @rb_thread_check_ints() #28
  %23 = load i64, ptr @rb_eIOError, align 8, !tbaa !23
  tail call void (i64, ptr, ...) @rb_raise(i64 noundef %23, ptr noundef nonnull @closed_stream) #30
  unreachable

rb_io_check_closed.exit:                          ; preds = %rb_io_check_initialized.exit.i
  %24 = and i64 %1, -5
  %.not = icmp eq i64 %24, 0
  %25 = getelementptr inbounds nuw i8, ptr %16, i64 20
  %26 = load i32, ptr %25, align 4, !tbaa !34
  %27 = and i32 %26, -65537
  %masksel = select i1 %.not, i32 65536, i32 0
  %.sink = or disjoint i32 %27, %masksel
  store i32 %.sink, ptr %25, align 4, !tbaa !34
  ret i64 %1
}